     1 00000000                                 ; haribote-ipl
     2 00000000                                 ; TAB=4
     3 00000000                                 
     4  = 0000000A                              CYLS	EQU		10				; CYLS를 10으로 정의
     5 00000000                                 
     6                                          		ORG		0x7c00			; 메모리 안에서 로딩되는 곳
     7 00007C00                                 
     8 00007C00                                 ; 아래는 표준 FAT12 포맷 플로피 디스켓을 위한 내용들
     9 00007C00                                 
    10 00007C00 EB 4E                           		JMP		entry
    11 00007C02 90                              		DB		0x90
    12 00007C03 48 41 52 49 42 4F 54 45         		DB		"HARIBOTE"		; 부트섹터 이름. 마음대로해도 ok
    13 00007C0B 0200                            		DW		512				; 1섹터 크기(바이트 단위, 512)
    14 00007C0D 01                              		DB		1				; 클러스터 크기(1로 해야됨)
    15 00007C0E 0001                            		DW		1				; 예약된 섹터수 
    16 00007C10 02                              		DB		2				; 디스크 FAT 테이블 수
    17 00007C11 00E0                            		DW		224				; 루트 디렉토리 엔트리 수 (보통 224엔트리)
    18 00007C13 0B40                            		DW		2880			; 디스크 총섹터수
    19 00007C15 F0                              		DB		0xf0			; 미디어 타입
    20 00007C16 0009                            		DW		9				; 하나의 FAT 테이블 섹터 수
    21 00007C18 0012                            		DW		18				; 1트랙에 몇 색터가있는지
    22 00007C1A 0002                            		DW		2				; 헤드의 수
    23 00007C1C 00000000                        		DD		0				; 파티션 없으므로 0
    24 00007C20 00000B40                        		DD		2880			; 드라이브 크기 한번더씀
    25 00007C24 00 00 29                        		DB		0,0,0x29		; 필요하다고함
    26 00007C27 FFFFFFFF                        		DD		0xffffffff		; 볼륨 시리얼 번호
    27 00007C2B 48 41 52 49 42 4F 54 45 4F 53   		DB		"HARIBOTEOS "	; 디스크 이름
       00007C35 20 
    28 00007C36 46 41 54 31 32 20 20 20         		DB		"FAT12   "		; 포멧이름
    29 00007C3E 00 00 00 00 00 00 00 00 00 00   		RESB	18				; 18바이트 남김
       00007C48 00 00 00 00 00 00 00 00 
    30 00007C50                                 
    31 00007C50                                 ; 프로그램 본체
    32 00007C50                                 
    33 00007C50                                 entry:
    34 00007C50 B8 0000                         		MOV		AX,0			; 레지스터 초기화
    35 00007C53 8E D0                           		MOV		SS,AX
    36 00007C55 BC 7C00                         		MOV		SP,0x7c00
    37 00007C58 8E D8                           		MOV		DS,AX
    38 00007C5A                                 
    39 00007C5A                                 ; 디스크 읽기
    40 00007C5A                                 
    41 00007C5A B8 0820                         		MOV		AX,0x0820
    42 00007C5D 8E C0                           		MOV		ES,AX
    43 00007C5F B5 00                           		MOV		CH,0			; 실린더 0
    44 00007C61 B6 00                           		MOV		DH,0			; 헤드 0
    45 00007C63 B1 02                           		MOV		CL,2			; 섹터 2 
    46 00007C65                                 readloop:
    47 00007C65 BE 0000                         		MOV		SI,0			; 실패 횟수를 세는 레지스터
    48 00007C68                                 		
    49 00007C68                                 retry:
    50 00007C68 B4 02                           		MOV		AH,0x02			; AH=0x02 : 디스크 읽기
    51 00007C6A B0 01                           		MOV		AL,1			; 1 섹터
    52 00007C6C BB 0000                         		MOV		BX,0
    53 00007C6F B2 00                           		MOV		DL,0x00			; A 드라이브
    54 00007C71 CD 13                           		INT		0x13			; 디스크 바이오스 호출
    55 00007C73 73 10                           		JNC		next			; 에러가 없으면 next로
    56 00007C75 83 C6 01                        		ADD		SI,1			; SI에 1더하기
    57 00007C78 83 FE 05                        		CMP		SI,5			; SI와 5비교
    58 00007C7B 73 2E                           		JAE		error			; SI >= 5 이면 에러로
    59 00007C7D B4 00                           		MOV		AH,0x00
    60 00007C7F B2 00                           		MOV		DL,0x00			; A 드라이브
    61 00007C81 CD 13                           		INT		0x13			; 드라이브 리셋
    62 00007C83 EB E3                           		JMP		retry
    63 00007C85                                 next:
    64 00007C85 8C C0                           		MOV		AX,ES			; 어드레스를 0x200 더함
    65 00007C87 05 0020                         		ADD		AX,0x0020
    66 00007C8A 8E C0                           		MOV		ES,AX			; ADD ES,0x020이 없어서 이렇게 함
    67 00007C8C 80 C1 01                        		ADD		CL,1			; CL에 1 더함
    68 00007C8F 80 F9 12                        		CMP		CL,18			; CL과 18 비교
    69 00007C92 76 D1                           		JBE		readloop		; CL <= 18 readloop로
    70 00007C94 B1 01                           		MOV		CL,1
    71 00007C96 80 C6 01                        		ADD		DH,1
    72 00007C99 80 FE 02                        		CMP		DH,2
    73 00007C9C 72 C7                           		JB		readloop		; DH < 2 read loop로
    74 00007C9E B6 00                           		MOV		DH,0
    75 00007CA0 80 C5 01                        		ADD		CH,1
    76 00007CA3 80 FD 0A                        		CMP		CH,CYLS
    77 00007CA6 72 BD                           		JB		readloop		; CH < CYLS read loop로
    78 00007CA8                                 
    79 00007CA8                                 
    80 00007CA8                                 fin:
    81 00007CA8 F4                              		HLT						; CPU 정지 시킴
    82 00007CA9 EB FD                           		JMP		fin				; 무한 루프
    83 00007CAB                                 
    84 00007CAB                                 error:
    85 00007CAB BE 7CC0                         		MOV		SI,msg
    86 00007CAE                                 
    87 00007CAE                                 putloop:
    88 00007CAE 8A 04                           		MOV		AL,[SI]
    89 00007CB0 83 C6 01                        		ADD		SI,1			; SI에 1 더함
    90 00007CB3 3C 00                           		CMP		AL,0
    91 00007CB5 74 F1                           		JE		fin
    92 00007CB7 B4 0E                           		MOV		AH,0x0e			; 한 문자 표시 기능
    93 00007CB9 BB 000F                         		MOV		BX,15			; 컬러 코드
    94 00007CBC CD 10                           		INT		0x10			; 비디오 BIOS 호출
    95 00007CBE EB EE                           		JMP		putloop
    96 00007CC0                                 
    97 00007CC0                                 msg:
    98 00007CC0 0A 0A                           		DB		0x0a, 0x0a		; 줄바꿈 문자 2개
    99 00007CC2 6C 6F 61 64 20 65 72 72 6F 72   		DB		"load error"
   100 00007CCC 0A                              		DB		0x0a			; 줄바꿈
   101 00007CCD 00                              		DB		0
   102 00007CCE                                 
   103 00007CCE 00 00 00 00 00 00 00 00 00 00   		RESB	0x7dfe-$		; 나머지칸 0채우기
       00007CD8 00 00 00 00 00 00 00 00 00 00 
       00007CE2 00 00 00 00 00 00 00 00 00 00 
       00007CEC 00 00 00 00 00 00 00 00 00 00 
       00007CF6 00 00 00 00 00 00 00 00 00 00 
       00007D00 00 00 00 00 00 00 00 00 00 00 
       00007D0A 00 00 00 00 00 00 00 00 00 00 
       00007D14 00 00 00 00 00 00 00 00 00 00 
       00007D1E 00 00 00 00 00 00 00 00 00 00 
       00007D28 00 00 00 00 00 00 00 00 00 00 
       00007D32 00 00 00 00 00 00 00 00 00 00 
       00007D3C 00 00 00 00 00 00 00 00 00 00 
       00007D46 00 00 00 00 00 00 00 00 00 00 
       00007D50 00 00 00 00 00 00 00 00 00 00 
       00007D5A 00 00 00 00 00 00 00 00 00 00 
       00007D64 00 00 00 00 00 00 00 00 00 00 
       00007D6E 00 00 00 00 00 00 00 00 00 00 
       00007D78 00 00 00 00 00 00 00 00 00 00 
       00007D82 00 00 00 00 00 00 00 00 00 00 
       00007D8C 00 00 00 00 00 00 00 00 00 00 
       00007D96 00 00 00 00 00 00 00 00 00 00 
       00007DA0 00 00 00 00 00 00 00 00 00 00 
       00007DAA 00 00 00 00 00 00 00 00 00 00 
       00007DB4 00 00 00 00 00 00 00 00 00 00 
       00007DBE 00 00 00 00 00 00 00 00 00 00 
       00007DC8 00 00 00 00 00 00 00 00 00 00 
       00007DD2 00 00 00 00 00 00 00 00 00 00 
       00007DDC 00 00 00 00 00 00 00 00 00 00 
       00007DE6 00 00 00 00 00 00 00 00 00 00 
       00007DF0 00 00 00 00 00 00 00 00 00 00 
       00007DFA 00 00 00 00 
   104 00007DFE                                 
   105 00007DFE 55 AA                           		DB		0x55, 0xaa
